; Function Attrs: mustprogress nounwind uwtable
define hidden noundef i32 @_ZN9EdgeUtils10array_sizeERK4Edge(ptr noundef nonnull align 8 dereferenceable(16) %0) local_unnamed_addr #0 align 2 {
  %2 = tail call noundef ptr @_ZNK4Edge15reference_ownerEv(ptr noundef nonnull align 8 dereferenceable(16) %0) #7
  %3 = load i8, ptr @UseCompressedClassPointers, align 1
  %4 = trunc i8 %3 to i1
  %5 = select i1 %4, i64 12, i64 16
  %6 = getelementptr inbounds i8, ptr %2, i64 %5
  %7 = load i32, ptr %6, align 4
  ret i32 %7
}